; Function Attrs: mustprogress uwtable
define void @_Z15gmx_fio_getnameB5cxx11P8t_fileio(ptr dead_on_unwind noalias writable sret(%"class.std::filesystem::__cxx11::path") align 8 %0, ptr noundef %1) local_unnamed_addr #0 personality ptr @__gxx_personality_v0 {
  %3 = getelementptr inbounds nuw i8, ptr %0, i64 16
  store ptr %3, ptr %0, align 8, !tbaa !4
  %4 = getelementptr inbounds nuw i8, ptr %0, i64 8
  store i64 0, ptr %4, align 8, !tbaa !10
  store i8 0, ptr %3, align 8, !tbaa !13
  %5 = getelementptr inbounds nuw i8, ptr %0, i64 32
  invoke void @_ZNSt10filesystem7__cxx114path5_ListC1Ev(ptr noundef nonnull align 8 dereferenceable(8) %5)
          to label %_ZNSt10filesystem7__cxx114pathC2Ev.exit unwind label %6

6:                                                ; preds = %2
  %7 = landingpad { ptr, i32 }
          catch ptr null
  %8 = extractvalue { ptr, i32 } %7, 0
  tail call void @__clang_call_terminate(ptr %8) #24
  unreachable

_ZNSt10filesystem7__cxx114pathC2Ev.exit:          ; preds = %2
  %9 = getelementptr inbounds nuw i8, ptr %1, i64 88
  invoke void @_Z14tMPI_Lock_lockP9tMPI_Lock(ptr noundef nonnull %9)
          to label %_Z12gmx_fio_lockP8t_fileio.exit unwind label %13

_Z12gmx_fio_lockP8t_fileio.exit:                  ; preds = %_ZNSt10filesystem7__cxx114pathC2Ev.exit
  %10 = getelementptr inbounds nuw i8, ptr %1, i64 16
  %11 = invoke noundef nonnull align 8 dereferenceable(40) ptr @_ZNSt10filesystem7__cxx114pathaSERKS1_(ptr noundef nonnull align 8 dereferenceable(40) %0, ptr noundef nonnull align 8 dereferenceable(40) %10)
          to label %12 unwind label %13

12:                                               ; preds = %_Z12gmx_fio_lockP8t_fileio.exit
  invoke void @_Z16tMPI_Lock_unlockP9tMPI_Lock(ptr noundef nonnull %9)
          to label %_Z14gmx_fio_unlockP8t_fileio.exit unwind label %13

13:                                               ; preds = %12, %_ZNSt10filesystem7__cxx114pathC2Ev.exit, %_Z12gmx_fio_lockP8t_fileio.exit
  %14 = landingpad { ptr, i32 }
          cleanup
  tail call void @_ZNSt10filesystem7__cxx114pathD2Ev(ptr noundef nonnull align 8 dereferenceable(40) %0) #21
  resume { ptr, i32 } %14

_Z14gmx_fio_unlockP8t_fileio.exit:                ; preds = %12
  ret void
}